target datalayout = "e-m:e-p270:32:32-p271:32:32-p272:64:64-i64:64-i128:128-f80:128-n8:16:32:64-S128"
target triple = "x86_64-pc-linux-gnu"

%struct.ResourceOwnerData = type { ptr, ptr, ptr, ptr, i8, i8, i8, i8, i32, [32 x %struct.ResourceElem], ptr, i32, i32, [15 x ptr] }
%struct.ResourceElem = type { i64, ptr }
%struct.ResourceReleaseCallbackItem = type { ptr, ptr, ptr }

@CurrentResourceOwner = dso_local global ptr null, align 8
@TopTransactionResourceOwner = dso_local global ptr null, align 8
@ResourceRelease_callbacks = internal global ptr null, align 8

; Function Attrs: nounwind uwtable
define internal void @ResourceOwnerSort(ptr noundef %0) #0 {
  %2 = alloca ptr, align 8
  %3 = alloca ptr, align 8
  %4 = alloca i32, align 4
  %5 = alloca i32, align 4
  %6 = alloca i32, align 4
  %7 = alloca i32, align 4
  store ptr %0, ptr %2, align 8
  call void @llvm.lifetime.start.p0(i64 8, ptr %3) #6
  call void @llvm.lifetime.start.p0(i64 4, ptr %4) #6
  %8 = load ptr, ptr %2, align 8
  %9 = getelementptr inbounds nuw %struct.ResourceOwnerData, ptr %8, i32 0, i32 8
  %10 = load i32, ptr %9, align 4
  %11 = icmp eq i32 %10, 0
  br i1 %11, label %12, label %20

12:                                               ; preds = %1
  %13 = load ptr, ptr %2, align 8
  %14 = getelementptr inbounds nuw %struct.ResourceOwnerData, ptr %13, i32 0, i32 9
  %15 = getelementptr inbounds [32 x %struct.ResourceElem], ptr %14, i64 0, i64 0
  store ptr %15, ptr %3, align 8
  %16 = load ptr, ptr %2, align 8
  %17 = getelementptr inbounds nuw %struct.ResourceOwnerData, ptr %16, i32 0, i32 7
  %18 = load i8, ptr %17, align 1
  %19 = zext i8 %18 to i32
  store i32 %19, ptr %4, align 4
  br label %100

20:                                               ; preds = %1
  call void @llvm.lifetime.start.p0(i64 4, ptr %5) #6
  store i32 0, ptr %5, align 4
  call void @llvm.lifetime.start.p0(i64 4, ptr %6) #6
  store i32 0, ptr %6, align 4
  br label %21

21:                                               ; preds = %59, %20
  %22 = load i32, ptr %6, align 4
  %23 = load ptr, ptr %2, align 8
  %24 = getelementptr inbounds nuw %struct.ResourceOwnerData, ptr %23, i32 0, i32 11
  %25 = load i32, ptr %24, align 8
  %26 = icmp ult i32 %22, %25
  br i1 %26, label %28, label %27

27:                                               ; preds = %21
  call void @llvm.lifetime.end.p0(i64 4, ptr %6) #6
  br label %62

28:                                               ; preds = %21
  %29 = load ptr, ptr %2, align 8
  %30 = getelementptr inbounds nuw %struct.ResourceOwnerData, ptr %29, i32 0, i32 10
  %31 = load ptr, ptr %30, align 8
  %32 = load i32, ptr %6, align 4
  %33 = sext i32 %32 to i64
  %34 = getelementptr inbounds %struct.ResourceElem, ptr %31, i64 %33
  %35 = getelementptr inbounds nuw %struct.ResourceElem, ptr %34, i32 0, i32 1
  %36 = load ptr, ptr %35, align 8
  %37 = icmp ne ptr %36, null
  br i1 %37, label %38, label %58

38:                                               ; preds = %28
  %39 = load i32, ptr %5, align 4
  %40 = load i32, ptr %6, align 4
  %41 = icmp ne i32 %39, %40
  br i1 %41, label %42, label %55

42:                                               ; preds = %38
  %43 = load ptr, ptr %2, align 8
  %44 = getelementptr inbounds nuw %struct.ResourceOwnerData, ptr %43, i32 0, i32 10
  %45 = load ptr, ptr %44, align 8
  %46 = load i32, ptr %5, align 4
  %47 = zext i32 %46 to i64
  %48 = getelementptr inbounds nuw %struct.ResourceElem, ptr %45, i64 %47
  %49 = load ptr, ptr %2, align 8
  %50 = getelementptr inbounds nuw %struct.ResourceOwnerData, ptr %49, i32 0, i32 10
  %51 = load ptr, ptr %50, align 8
  %52 = load i32, ptr %6, align 4
  %53 = sext i32 %52 to i64
  %54 = getelementptr inbounds %struct.ResourceElem, ptr %51, i64 %53
  call void @llvm.memcpy.p0.p0.i64(ptr align 8 %48, ptr align 8 %54, i64 16, i1 false)
  br label %55

55:                                               ; preds = %42, %38
  %56 = load i32, ptr %5, align 4
  %57 = add i32 %56, 1
  store i32 %57, ptr %5, align 4
  br label %58

58:                                               ; preds = %55, %28
  br label %59

59:                                               ; preds = %58
  %60 = load i32, ptr %6, align 4
  %61 = add i32 %60, 1
  store i32 %61, ptr %6, align 4
  br label %21, !llvm.loop !19

62:                                               ; preds = %27
  call void @llvm.lifetime.start.p0(i64 4, ptr %7) #6
  store i32 0, ptr %7, align 4
  br label %63

63:                                               ; preds = %85, %62
  %64 = load i32, ptr %7, align 4
  %65 = load ptr, ptr %2, align 8
  %66 = getelementptr inbounds nuw %struct.ResourceOwnerData, ptr %65, i32 0, i32 7
  %67 = load i8, ptr %66, align 1
  %68 = zext i8 %67 to i32
  %69 = icmp slt i32 %64, %68
  br i1 %69, label %71, label %70

70:                                               ; preds = %63
  call void @llvm.lifetime.end.p0(i64 4, ptr %7) #6
  br label %88

71:                                               ; preds = %63
  %72 = load ptr, ptr %2, align 8
  %73 = getelementptr inbounds nuw %struct.ResourceOwnerData, ptr %72, i32 0, i32 10
  %74 = load ptr, ptr %73, align 8
  %75 = load i32, ptr %5, align 4
  %76 = zext i32 %75 to i64
  %77 = getelementptr inbounds nuw %struct.ResourceElem, ptr %74, i64 %76
  %78 = load ptr, ptr %2, align 8
  %79 = getelementptr inbounds nuw %struct.ResourceOwnerData, ptr %78, i32 0, i32 9
  %80 = load i32, ptr %7, align 4
  %81 = sext i32 %80 to i64
  %82 = getelementptr inbounds [32 x %struct.ResourceElem], ptr %79, i64 0, i64 %81
  call void @llvm.memcpy.p0.p0.i64(ptr align 8 %77, ptr align 8 %82, i64 16, i1 false)
  %83 = load i32, ptr %5, align 4
  %84 = add i32 %83, 1
  store i32 %84, ptr %5, align 4
  br label %85

85:                                               ; preds = %71
  %86 = load i32, ptr %7, align 4
  %87 = add i32 %86, 1
  store i32 %87, ptr %7, align 4
  br label %63, !llvm.loop !20

88:                                               ; preds = %70
  %89 = load ptr, ptr %2, align 8
  %90 = getelementptr inbounds nuw %struct.ResourceOwnerData, ptr %89, i32 0, i32 7
  store i8 0, ptr %90, align 1
  %91 = load i32, ptr %5, align 4
  %92 = load ptr, ptr %2, align 8
  %93 = getelementptr inbounds nuw %struct.ResourceOwnerData, ptr %92, i32 0, i32 8
  store i32 %91, ptr %93, align 4
  %94 = load ptr, ptr %2, align 8
  %95 = getelementptr inbounds nuw %struct.ResourceOwnerData, ptr %94, i32 0, i32 10
  %96 = load ptr, ptr %95, align 8
  store ptr %96, ptr %3, align 8
  %97 = load ptr, ptr %2, align 8
  %98 = getelementptr inbounds nuw %struct.ResourceOwnerData, ptr %97, i32 0, i32 8
  %99 = load i32, ptr %98, align 4
  store i32 %99, ptr %4, align 4
  call void @llvm.lifetime.end.p0(i64 4, ptr %5) #6
  br label %100

100:                                              ; preds = %88, %12
  %101 = load ptr, ptr %3, align 8
  %102 = load i32, ptr %4, align 4
  %103 = zext i32 %102 to i64
  call void @pg_qsort(ptr noundef %101, i64 noundef %103, i64 noundef 16, ptr noundef @resource_priority_cmp)
  call void @llvm.lifetime.end.p0(i64 4, ptr %4) #6
  call void @llvm.lifetime.end.p0(i64 8, ptr %3) #6
  ret void
}

; Function Attrs: nounwind uwtable
define internal void @ResourceOwnerReleaseInternal(ptr noundef %0, i32 noundef %1, i1 noundef zeroext %2, i1 noundef zeroext %3) #0 {
  %5 = alloca ptr, align 8
  %6 = alloca i32, align 4
  %7 = alloca i8, align 1
  %8 = alloca i8, align 1
  %9 = alloca ptr, align 8
  %10 = alloca ptr, align 8
  %11 = alloca ptr, align 8
  %12 = alloca ptr, align 8
  %13 = alloca ptr, align 8
  %14 = alloca i32, align 4
  store ptr %0, ptr %5, align 8
  store i32 %1, ptr %6, align 4
  %15 = zext i1 %2 to i8
  store i8 %15, ptr %7, align 1
  %16 = zext i1 %3 to i8
  store i8 %16, ptr %8, align 1
  call void @llvm.lifetime.start.p0(i64 8, ptr %9) #6
  call void @llvm.lifetime.start.p0(i64 8, ptr %10) #6
  call void @llvm.lifetime.start.p0(i64 8, ptr %11) #6
  call void @llvm.lifetime.start.p0(i64 8, ptr %12) #6
  %17 = load ptr, ptr %5, align 8
  %18 = getelementptr inbounds nuw %struct.ResourceOwnerData, ptr %17, i32 0, i32 1
  %19 = load ptr, ptr %18, align 8
  store ptr %19, ptr %9, align 8
  br label %20

20:                                               ; preds = %30, %4
  %21 = load ptr, ptr %9, align 8
  %22 = icmp ne ptr %21, null
  br i1 %22, label %23, label %34

23:                                               ; preds = %20
  %24 = load ptr, ptr %9, align 8
  %25 = load i32, ptr %6, align 4
  %26 = load i8, ptr %7, align 1, !range !4, !noundef !5
  %27 = trunc i8 %26 to i1
  %28 = load i8, ptr %8, align 1, !range !4, !noundef !5
  %29 = trunc i8 %28 to i1
  call void @ResourceOwnerReleaseInternal(ptr noundef %24, i32 noundef %25, i1 noundef zeroext %27, i1 noundef zeroext %29)
  br label %30

30:                                               ; preds = %23
  %31 = load ptr, ptr %9, align 8
  %32 = getelementptr inbounds nuw %struct.ResourceOwnerData, ptr %31, i32 0, i32 2
  %33 = load ptr, ptr %32, align 8
  store ptr %33, ptr %9, align 8
  br label %20, !llvm.loop !11

34:                                               ; preds = %20
  %35 = load ptr, ptr %5, align 8
  %36 = getelementptr inbounds nuw %struct.ResourceOwnerData, ptr %35, i32 0, i32 4
  %37 = load i8, ptr %36, align 8, !range !4, !noundef !5
  %38 = trunc i8 %37 to i1
  br i1 %38, label %42, label %39

39:                                               ; preds = %34
  %40 = load ptr, ptr %5, align 8
  %41 = getelementptr inbounds nuw %struct.ResourceOwnerData, ptr %40, i32 0, i32 4
  store i8 1, ptr %41, align 8
  br label %43

42:                                               ; preds = %34
  br label %43

43:                                               ; preds = %42, %39
  %44 = load ptr, ptr %5, align 8
  %45 = getelementptr inbounds nuw %struct.ResourceOwnerData, ptr %44, i32 0, i32 5
  %46 = load i8, ptr %45, align 1, !range !4, !noundef !5
  %47 = trunc i8 %46 to i1
  br i1 %47, label %52, label %48

48:                                               ; preds = %43
  %49 = load ptr, ptr %5, align 8
  call void @ResourceOwnerSort(ptr noundef %49)
  %50 = load ptr, ptr %5, align 8
  %51 = getelementptr inbounds nuw %struct.ResourceOwnerData, ptr %50, i32 0, i32 5
  store i8 1, ptr %51, align 1
  br label %52

52:                                               ; preds = %48, %43
  %53 = load ptr, ptr @CurrentResourceOwner, align 8
  store ptr %53, ptr %10, align 8
  %54 = load ptr, ptr %5, align 8
  store ptr %54, ptr @CurrentResourceOwner, align 8
  %55 = load i32, ptr %6, align 4
  %56 = icmp eq i32 %55, 1
  br i1 %56, label %57, label %62

57:                                               ; preds = %52
  %58 = load ptr, ptr %5, align 8
  %59 = load i32, ptr %6, align 4
  %60 = load i8, ptr %7, align 1, !range !4, !noundef !5
  %61 = trunc i8 %60 to i1
  call void @ResourceOwnerReleaseAll(ptr noundef %58, i32 noundef %59, i1 noundef zeroext %61)
  br label %114

62:                                               ; preds = %52
  %63 = load i32, ptr %6, align 4
  %64 = icmp eq i32 %63, 2
  br i1 %64, label %65, label %104

65:                                               ; preds = %62
  %66 = load i8, ptr %8, align 1, !range !4, !noundef !5
  %67 = trunc i8 %66 to i1
  br i1 %67, label %68, label %78

68:                                               ; preds = %65
  %69 = load ptr, ptr %5, align 8
  %70 = load ptr, ptr @TopTransactionResourceOwner, align 8
  %71 = icmp eq ptr %69, %70
  br i1 %71, label %72, label %77

72:                                               ; preds = %68
  %73 = load i8, ptr %7, align 1, !range !4, !noundef !5
  %74 = trunc i8 %73 to i1
  call void @ProcReleaseLocks(i1 noundef zeroext %74)
  %75 = load i8, ptr %7, align 1, !range !4, !noundef !5
  %76 = trunc i8 %75 to i1
  call void @ReleasePredicateLocks(i1 noundef zeroext %76, i1 noundef zeroext false)
  br label %77

77:                                               ; preds = %72, %68
  br label %103

78:                                               ; preds = %65
  call void @llvm.lifetime.start.p0(i64 8, ptr %13) #6
  call void @llvm.lifetime.start.p0(i64 4, ptr %14) #6
  %79 = load ptr, ptr %5, align 8
  %80 = getelementptr inbounds nuw %struct.ResourceOwnerData, ptr %79, i32 0, i32 6
  %81 = load i8, ptr %80, align 2
  %82 = zext i8 %81 to i32
  %83 = icmp sgt i32 %82, 15
  br i1 %83, label %84, label %85

84:                                               ; preds = %78
  store ptr null, ptr %13, align 8
  store i32 0, ptr %14, align 4
  br label %93

85:                                               ; preds = %78
  %86 = load ptr, ptr %5, align 8
  %87 = getelementptr inbounds nuw %struct.ResourceOwnerData, ptr %86, i32 0, i32 13
  %88 = getelementptr inbounds [15 x ptr], ptr %87, i64 0, i64 0
  store ptr %88, ptr %13, align 8
  %89 = load ptr, ptr %5, align 8
  %90 = getelementptr inbounds nuw %struct.ResourceOwnerData, ptr %89, i32 0, i32 6
  %91 = load i8, ptr %90, align 2
  %92 = zext i8 %91 to i32
  store i32 %92, ptr %14, align 4
  br label %93

93:                                               ; preds = %85, %84
  %94 = load i8, ptr %7, align 1, !range !4, !noundef !5
  %95 = trunc i8 %94 to i1
  br i1 %95, label %96, label %99

96:                                               ; preds = %93
  %97 = load ptr, ptr %13, align 8
  %98 = load i32, ptr %14, align 4
  call void @LockReassignCurrentOwner(ptr noundef %97, i32 noundef %98)
  br label %102

99:                                               ; preds = %93
  %100 = load ptr, ptr %13, align 8
  %101 = load i32, ptr %14, align 4
  call void @LockReleaseCurrentOwner(ptr noundef %100, i32 noundef %101)
  br label %102

102:                                              ; preds = %99, %96
  call void @llvm.lifetime.end.p0(i64 4, ptr %14) #6
  call void @llvm.lifetime.end.p0(i64 8, ptr %13) #6
  br label %103

103:                                              ; preds = %102, %77
  br label %113

104:                                              ; preds = %62
  %105 = load i32, ptr %6, align 4
  %106 = icmp eq i32 %105, 3
  br i1 %106, label %107, label %112

107:                                              ; preds = %104
  %108 = load ptr, ptr %5, align 8
  %109 = load i32, ptr %6, align 4
  %110 = load i8, ptr %7, align 1, !range !4, !noundef !5
  %111 = trunc i8 %110 to i1
  call void @ResourceOwnerReleaseAll(ptr noundef %108, i32 noundef %109, i1 noundef zeroext %111)
  br label %112

112:                                              ; preds = %107, %104
  br label %113

113:                                              ; preds = %112, %103
  br label %114

114:                                              ; preds = %113, %57
  %115 = load ptr, ptr @ResourceRelease_callbacks, align 8
  store ptr %115, ptr %11, align 8
  br label %116

116:                                              ; preds = %134, %114
  %117 = load ptr, ptr %11, align 8
  %118 = icmp ne ptr %117, null
  br i1 %118, label %119, label %136

119:                                              ; preds = %116
  %120 = load ptr, ptr %11, align 8
  %121 = getelementptr inbounds nuw %struct.ResourceReleaseCallbackItem, ptr %120, i32 0, i32 0
  %122 = load ptr, ptr %121, align 8
  store ptr %122, ptr %12, align 8
  %123 = load ptr, ptr %11, align 8
  %124 = getelementptr inbounds nuw %struct.ResourceReleaseCallbackItem, ptr %123, i32 0, i32 1
  %125 = load ptr, ptr %124, align 8
  %126 = load i32, ptr %6, align 4
  %127 = load i8, ptr %7, align 1, !range !4, !noundef !5
  %128 = trunc i8 %127 to i1
  %129 = load i8, ptr %8, align 1, !range !4, !noundef !5
  %130 = trunc i8 %129 to i1
  %131 = load ptr, ptr %11, align 8
  %132 = getelementptr inbounds nuw %struct.ResourceReleaseCallbackItem, ptr %131, i32 0, i32 2
  %133 = load ptr, ptr %132, align 8
  call void %125(i32 noundef %126, i1 noundef zeroext %128, i1 noundef zeroext %130, ptr noundef %133)
  br label %134

134:                                              ; preds = %119
  %135 = load ptr, ptr %12, align 8
  store ptr %135, ptr %11, align 8
  br label %116, !llvm.loop !12

136:                                              ; preds = %116
  %137 = load ptr, ptr %10, align 8
  store ptr %137, ptr @CurrentResourceOwner, align 8
  call void @llvm.lifetime.end.p0(i64 8, ptr %12) #6
  call void @llvm.lifetime.end.p0(i64 8, ptr %11) #6
  call void @llvm.lifetime.end.p0(i64 8, ptr %10) #6
  call void @llvm.lifetime.end.p0(i64 8, ptr %9) #6
  ret void
}