; Function Attrs: nounwind uwtable
define internal fastcc void @ResourceOwnerReleaseInternal(ptr noundef %0, i32 noundef %1, i1 noundef zeroext %2, i1 noundef zeroext %3) unnamed_addr #0 {
  %5 = getelementptr inbounds nuw i8, ptr %0, i64 8
  %.04348 = load ptr, ptr %5, align 8
  %.not49 = icmp eq ptr %.04348, null
  br i1 %.not49, label %._crit_edge, label %.lr.ph

.lr.ph:                                           ; preds = %4, %.lr.ph
  %.04350 = phi ptr [ %.043, %.lr.ph ], [ %.04348, %4 ]
  tail call fastcc void @ResourceOwnerReleaseInternal(ptr noundef nonnull %.04350, i32 noundef %1, i1 noundef zeroext %2, i1 noundef zeroext %3)
  %6 = getelementptr inbounds nuw i8, ptr %.04350, i64 16
  %.043 = load ptr, ptr %6, align 8
  %.not = icmp eq ptr %.043, null
  br i1 %.not, label %._crit_edge, label %.lr.ph, !llvm.loop !11

._crit_edge:                                      ; preds = %.lr.ph, %4
  %7 = getelementptr inbounds nuw i8, ptr %0, i64 32
  %8 = load i8, ptr %7, align 8, !range !4, !noundef !5
  %9 = trunc nuw i8 %8 to i1
  br i1 %9, label %11, label %10

10:                                               ; preds = %._crit_edge
  store i8 1, ptr %7, align 8
  br label %11

11:                                               ; preds = %._crit_edge, %10
  %12 = getelementptr inbounds nuw i8, ptr %0, i64 33
  %13 = load i8, ptr %12, align 1, !range !4, !noundef !5
  %14 = trunc nuw i8 %13 to i1
  br i1 %14, label %60, label %15

15:                                               ; preds = %11
  %16 = getelementptr inbounds nuw i8, ptr %0, i64 36
  %17 = load i32, ptr %16, align 4
  %18 = icmp eq i32 %17, 0
  br i1 %18, label %22, label %.preheader34.i

.preheader34.i:                                   ; preds = %15
  %19 = getelementptr inbounds nuw i8, ptr %0, i64 560
  %20 = load i32, ptr %19, align 8
  %.not41.i = icmp eq i32 %20, 0
  br i1 %.not41.i, label %.preheader.i, label %.lr.ph.i

.lr.ph.i:                                         ; preds = %.preheader34.i
  %21 = getelementptr inbounds nuw i8, ptr %0, i64 552
  br label %31

22:                                               ; preds = %15
  %23 = getelementptr inbounds nuw i8, ptr %0, i64 40
  %24 = getelementptr inbounds nuw i8, ptr %0, i64 35
  %25 = load i8, ptr %24, align 1
  %26 = zext i8 %25 to i32
  br label %ResourceOwnerSort.exit

.preheader.i:                                     ; preds = %44, %.preheader34.i
  %.030.lcssa.i = phi i32 [ 0, %.preheader34.i ], [ %.1.i, %44 ]
  %27 = getelementptr inbounds nuw i8, ptr %0, i64 35
  %28 = load i8, ptr %27, align 1
  %.not42.i = icmp eq i8 %28, 0
  br i1 %.not42.i, label %._crit_edge.i, label %.lr.ph39.i

.lr.ph39.i:                                       ; preds = %.preheader.i
  %29 = getelementptr inbounds nuw i8, ptr %0, i64 552
  %30 = getelementptr inbounds nuw i8, ptr %0, i64 40
  br label %50

31:                                               ; preds = %44, %.lr.ph.i
  %.pre44.i = phi i32 [ %20, %.lr.ph.i ], [ %.pre45.i, %44 ]
  %32 = phi i32 [ %20, %.lr.ph.i ], [ %45, %44 ]
  %.02936.i = phi i32 [ 0, %.lr.ph.i ], [ %46, %44 ]
  %.03035.i = phi i32 [ 0, %.lr.ph.i ], [ %.1.i, %44 ]
  %33 = load ptr, ptr %21, align 8
  %34 = sext i32 %.02936.i to i64
  %35 = getelementptr inbounds %struct.ResourceElem, ptr %33, i64 %34
  %36 = getelementptr inbounds nuw i8, ptr %35, i64 8
  %37 = load ptr, ptr %36, align 8
  %.not.i = icmp eq ptr %37, null
  br i1 %.not.i, label %44, label %38

38:                                               ; preds = %31
  %.not33.i = icmp eq i32 %.03035.i, %.02936.i
  br i1 %.not33.i, label %42, label %39

39:                                               ; preds = %38
  %40 = zext i32 %.03035.i to i64
  %41 = getelementptr inbounds nuw %struct.ResourceElem, ptr %33, i64 %40
  tail call void @llvm.memcpy.p0.p0.i64(ptr noundef nonnull align 8 dereferenceable(16) %41, ptr noundef nonnull align 8 dereferenceable(16) %35, i64 16, i1 false)
  %.pre.pre.i = load i32, ptr %19, align 8
  br label %42

42:                                               ; preds = %39, %38
  %.pre.i = phi i32 [ %.pre.pre.i, %39 ], [ %.pre44.i, %38 ]
  %43 = add i32 %.03035.i, 1
  br label %44

44:                                               ; preds = %42, %31
  %.pre45.i = phi i32 [ %.pre.i, %42 ], [ %.pre44.i, %31 ]
  %45 = phi i32 [ %.pre.i, %42 ], [ %32, %31 ]
  %.1.i = phi i32 [ %43, %42 ], [ %.03035.i, %31 ]
  %46 = add nuw i32 %.02936.i, 1
  %47 = icmp ult i32 %46, %45
  br i1 %47, label %31, label %.preheader.i, !llvm.loop !12

._crit_edge.i:                                    ; preds = %50, %.preheader.i
  %.2.lcssa.i = phi i32 [ %.030.lcssa.i, %.preheader.i ], [ %55, %50 ]
  store i8 0, ptr %27, align 1
  store i32 %.2.lcssa.i, ptr %16, align 4
  %48 = getelementptr inbounds nuw i8, ptr %0, i64 552
  %49 = load ptr, ptr %48, align 8
  br label %ResourceOwnerSort.exit

50:                                               ; preds = %50, %.lr.ph39.i
  %indvars.iv.i = phi i64 [ 0, %.lr.ph39.i ], [ %indvars.iv.next.i, %50 ]
  %.237.i = phi i32 [ %.030.lcssa.i, %.lr.ph39.i ], [ %55, %50 ]
  %51 = load ptr, ptr %29, align 8
  %52 = zext i32 %.237.i to i64
  %53 = getelementptr inbounds nuw %struct.ResourceElem, ptr %51, i64 %52
  %54 = getelementptr inbounds nuw [32 x %struct.ResourceElem], ptr %30, i64 0, i64 %indvars.iv.i
  tail call void @llvm.memcpy.p0.p0.i64(ptr noundef nonnull align 8 dereferenceable(16) %53, ptr noundef nonnull align 8 dereferenceable(16) %54, i64 16, i1 false)
  %55 = add i32 %.237.i, 1
  %indvars.iv.next.i = add nuw nsw i64 %indvars.iv.i, 1
  %56 = load i8, ptr %27, align 1
  %57 = zext i8 %56 to i64
  %58 = icmp samesign ult i64 %indvars.iv.next.i, %57
  br i1 %58, label %50, label %._crit_edge.i, !llvm.loop !13

ResourceOwnerSort.exit:                           ; preds = %22, %._crit_edge.i
  %.032.i = phi ptr [ %23, %22 ], [ %49, %._crit_edge.i ]
  %.031.i = phi i32 [ %26, %22 ], [ %.2.lcssa.i, %._crit_edge.i ]
  %59 = zext i32 %.031.i to i64
  tail call void @pg_qsort(ptr noundef %.032.i, i64 noundef %59, i64 noundef 16, ptr noundef nonnull @resource_priority_cmp) #10
  store i8 1, ptr %12, align 1
  br label %60

60:                                               ; preds = %ResourceOwnerSort.exit, %11
  %61 = load ptr, ptr @CurrentResourceOwner, align 8
  store ptr %0, ptr @CurrentResourceOwner, align 8
  switch i32 %1, label %76 [
    i32 1, label %62
    i32 2, label %63
    i32 3, label %75
  ]

62:                                               ; preds = %60
  tail call fastcc void @ResourceOwnerReleaseAll(ptr noundef nonnull %0, i32 noundef 1, i1 noundef zeroext %2)
  br label %76

63:                                               ; preds = %60
  br i1 %3, label %64, label %68

64:                                               ; preds = %63
  %65 = load ptr, ptr @TopTransactionResourceOwner, align 8
  %66 = icmp eq ptr %0, %65
  br i1 %66, label %67, label %76

67:                                               ; preds = %64
  tail call void @ProcReleaseLocks(i1 noundef zeroext %2) #10
  tail call void @ReleasePredicateLocks(i1 noundef zeroext %2, i1 noundef zeroext false) #10
  br label %76

68:                                               ; preds = %63
  %69 = getelementptr inbounds nuw i8, ptr %0, i64 34
  %70 = load i8, ptr %69, align 2
  %71 = icmp ugt i8 %70, 15
  %72 = getelementptr inbounds nuw i8, ptr %0, i64 568
  %.042 = select i1 %71, ptr null, ptr %72
  %narrow = select i1 %71, i8 0, i8 %70
  %.0 = zext i8 %narrow to i32
  br i1 %2, label %73, label %74

73:                                               ; preds = %68
  tail call void @LockReassignCurrentOwner(ptr noundef %.042, i32 noundef %.0) #10
  br label %76

74:                                               ; preds = %68
  tail call void @LockReleaseCurrentOwner(ptr noundef %.042, i32 noundef %.0) #10
  br label %76

75:                                               ; preds = %60
  tail call fastcc void @ResourceOwnerReleaseAll(ptr noundef nonnull %0, i32 noundef 3, i1 noundef zeroext %2)
  br label %76

76:                                               ; preds = %60, %73, %74, %64, %67, %75, %62
  %77 = load ptr, ptr @ResourceRelease_callbacks, align 8
  %.not4751 = icmp eq ptr %77, null
  br i1 %.not4751, label %._crit_edge55, label %.lr.ph54

.lr.ph54:                                         ; preds = %76, %.lr.ph54
  %.04452 = phi ptr [ %78, %.lr.ph54 ], [ %77, %76 ]
  %78 = load ptr, ptr %.04452, align 8
  %79 = getelementptr inbounds nuw i8, ptr %.04452, i64 8
  %80 = load ptr, ptr %79, align 8
  %81 = getelementptr inbounds nuw i8, ptr %.04452, i64 16
  %82 = load ptr, ptr %81, align 8
  tail call void %80(i32 noundef %1, i1 noundef zeroext %2, i1 noundef zeroext %3, ptr noundef %82) #10
  %.not47 = icmp eq ptr %78, null
  br i1 %.not47, label %._crit_edge55, label %.lr.ph54, !llvm.loop !14

._crit_edge55:                                    ; preds = %.lr.ph54, %76
  store ptr %61, ptr @CurrentResourceOwner, align 8
  ret void
}